target datalayout = "e-m:e-p270:32:32-p271:32:32-p272:64:64-i64:64-i128:128-f80:128-n8:16:32:64-S128"
target triple = "x86_64-pc-linux-gnu"

; Function Attrs: nounwind uwtable
define dso_local i32 @zslRandomLevel() #0 {
  %1 = alloca i32, align 4
  call void @llvm.lifetime.start.p0(i64 4, ptr %1) #12
  store i32 1, ptr %1, align 4, !tbaa !5
  br label %2

2:                                                ; preds = %5, %0
  %3 = call i64 @random() #12
  %4 = icmp slt i64 %3, 536870911
  br i1 %4, label %5, label %8

5:                                                ; preds = %2
  %6 = load i32, ptr %1, align 4, !tbaa !5
  %7 = add nsw i32 %6, 1
  store i32 %7, ptr %1, align 4, !tbaa !5
  br label %2, !llvm.loop !30

8:                                                ; preds = %2
  %9 = load i32, ptr %1, align 4, !tbaa !5
  %10 = icmp slt i32 %9, 32
  br i1 %10, label %11, label %13

11:                                               ; preds = %8
  %12 = load i32, ptr %1, align 4, !tbaa !5
  br label %14

13:                                               ; preds = %8
  br label %14

14:                                               ; preds = %13, %11
  %15 = phi i32 [ %12, %11 ], [ 32, %13 ]
  call void @llvm.lifetime.end.p0(i64 4, ptr %1) #12
  ret i32 %15
}