; Function Attrs: nounwind uwtable
define dso_local range(i32 0, 33) i32 @zslRandomLevel() local_unnamed_addr #0 {
  br label %1

1:                                                ; preds = %1, %0
  %.0 = phi i32 [ 1, %0 ], [ %4, %1 ]
  %2 = tail call i64 @random() #18
  %3 = icmp slt i64 %2, 536870911
  %4 = add nuw nsw i32 %.0, 1
  br i1 %3, label %1, label %5, !llvm.loop !24

5:                                                ; preds = %1
  %6 = tail call i32 @llvm.umin.i32(i32 %.0, i32 32)
  ret i32 %6
}